target datalayout = "e-m:e-p270:32:32-p271:32:32-p272:64:64-i64:64-i128:128-f80:128-n8:16:32:64-S128"
target triple = "x86_64-pc-linux-gnu"

%struct._internal_exr_attr_map = type { ptr, i32, i32, i64 }
%struct.exr_attribute_list = type { i32, i32, ptr, ptr }
%struct._priv_exr_context_t = type { i8, i8, i8, i8, i8, i8, i8, i8, %struct.exr_attr_string_t, %struct.exr_attr_string_t, ptr, ptr, ptr, ptr, ptr, ptr, ptr, ptr, i32, i32, i32, i32, i32, float, ptr, ptr, ptr, i64, ptr, ptr, i64, i32, i32, i32, i32, %struct._priv_exr_part_t, ptr, ptr, %struct.exr_attribute_list, %union.pthread_mutex_t, i8, i8, [2 x i8], i32 }
%struct.exr_attr_string_t = type { i32, i32, ptr }
%struct._priv_exr_part_t = type { i32, i32, %struct.exr_attribute_list, ptr, ptr, ptr, ptr, ptr, ptr, ptr, ptr, ptr, ptr, ptr, ptr, ptr, ptr, %struct.exr_attr_box2i_t, %struct.exr_attr_box2i_t, i32, i32, i32, float, i32, i32, ptr, ptr, ptr, ptr, i64, i16, i16, i32, i64, i64 }
%struct.exr_attr_box2i_t = type { %struct.exr_attr_v2i_t, %struct.exr_attr_v2i_t }
%struct.exr_attr_v2i_t = type { i32, i32 }
%union.pthread_mutex_t = type { %struct.__pthread_mutex_s }
%struct.__pthread_mutex_s = type { i32, i32, i32, i32, i32, i16, i16, %struct.__pthread_internal_list }
%struct.__pthread_internal_list = type { ptr, ptr }
%struct.exr_attribute_t = type { ptr, ptr, i8, i8, [2 x i8], i32, %union.anon }
%union.anon = type { double }

@the_predefined_attr_count = internal global i32 29, align 4
@.str.6 = private unnamed_addr constant [28 x i8] c"Invalid type to add_by_type\00", align 1
@.str.7 = private unnamed_addr constant [76 x i8] c"Entry '%s' already in list but with different type ('%s' vs requested '%s')\00", align 1
@.str.8 = private unnamed_addr constant [54 x i8] c"Provided name '%s' too long for file (len %d, max %d)\00", align 1
@.str.9 = private unnamed_addr constant [59 x i8] c"Provided type name '%s' too long for file (len %d, max %d)\00", align 1

; Function Attrs: nounwind uwtable
define hidden i32 @exr_attr_list_add_by_type(ptr noundef %0, ptr noundef %1, ptr noundef %2, ptr noundef %3, i32 noundef %4, ptr noundef %5, ptr noundef %6) #0 {
  %8 = alloca i32, align 4
  %9 = alloca ptr, align 8
  %10 = alloca ptr, align 8
  %11 = alloca ptr, align 8
  %12 = alloca ptr, align 8
  %13 = alloca i32, align 4
  %14 = alloca ptr, align 8
  %15 = alloca ptr, align 8
  %16 = alloca ptr, align 8
  %17 = alloca i32, align 4
  %18 = alloca i32, align 4
  %19 = alloca i32, align 4
  %20 = alloca i32, align 4
  %21 = alloca i64, align 8
  %22 = alloca ptr, align 8
  %23 = alloca i32, align 4
  %24 = alloca i32, align 4
  store ptr %0, ptr %9, align 8, !tbaa !15
  store ptr %1, ptr %10, align 8, !tbaa !17
  store ptr %2, ptr %11, align 8, !tbaa !3
  store ptr %3, ptr %12, align 8, !tbaa !3
  store i32 %4, ptr %13, align 4, !tbaa !8
  store ptr %5, ptr %14, align 8, !tbaa !71
  store ptr %6, ptr %15, align 8, !tbaa !37
  call void @llvm.lifetime.start.p0(i64 8, ptr %16) #6
  store ptr null, ptr %16, align 8, !tbaa !73
  call void @llvm.lifetime.start.p0(i64 4, ptr %17) #6
  store i32 3, ptr %17, align 4, !tbaa !8
  call void @llvm.lifetime.start.p0(i64 4, ptr %18) #6
  call void @llvm.lifetime.start.p0(i64 4, ptr %19) #6
  call void @llvm.lifetime.start.p0(i64 4, ptr %20) #6
  call void @llvm.lifetime.start.p0(i64 8, ptr %21) #6
  call void @llvm.lifetime.start.p0(i64 8, ptr %22) #6
  store ptr null, ptr %22, align 8, !tbaa !23
  %25 = load ptr, ptr %9, align 8, !tbaa !15
  %26 = icmp ne ptr %25, null
  br i1 %26, label %28, label %27

27:                                               ; preds = %7
  store i32 2, ptr %8, align 4
  store i32 1, ptr %23, align 4
  br label %220

28:                                               ; preds = %7
  %29 = load ptr, ptr %12, align 8, !tbaa !3
  %30 = icmp ne ptr %29, null
  br i1 %30, label %31, label %37

31:                                               ; preds = %28
  %32 = load ptr, ptr %12, align 8, !tbaa !3
  %33 = getelementptr inbounds i8, ptr %32, i64 0
  %34 = load i8, ptr %33, align 1, !tbaa !40
  %35 = sext i8 %34 to i32
  %36 = icmp eq i32 %35, 0
  br i1 %36, label %37, label %43

37:                                               ; preds = %31, %28
  %38 = load ptr, ptr %9, align 8, !tbaa !15
  %39 = getelementptr inbounds nuw %struct._priv_exr_context_t, ptr %38, i32 0, i32 13
  %40 = load ptr, ptr %39, align 8, !tbaa !44
  %41 = load ptr, ptr %9, align 8, !tbaa !15
  %42 = call i32 %40(ptr noundef %41, i32 noundef 3, ptr noundef @.str.6)
  store i32 %42, ptr %8, align 4
  store i32 1, ptr %23, align 4
  br label %220

43:                                               ; preds = %31
  %44 = load ptr, ptr %9, align 8, !tbaa !15
  %45 = load ptr, ptr %10, align 8, !tbaa !17
  %46 = load ptr, ptr %11, align 8, !tbaa !3
  %47 = load i32, ptr %13, align 4, !tbaa !8
  %48 = load ptr, ptr %14, align 8, !tbaa !71
  %49 = load ptr, ptr %15, align 8, !tbaa !37
  %50 = call i32 @validate_attr_arguments(ptr noundef %44, ptr noundef %45, ptr noundef %46, i32 noundef %47, ptr noundef %48, ptr noundef %49)
  store i32 %50, ptr %17, align 4, !tbaa !8
  %51 = load i32, ptr %17, align 4, !tbaa !8
  %52 = icmp ne i32 %51, 0
  br i1 %52, label %53, label %81

53:                                               ; preds = %43
  %54 = load i32, ptr %17, align 4, !tbaa !8
  %55 = icmp slt i32 %54, 0
  br i1 %55, label %56, label %79

56:                                               ; preds = %53
  %57 = load ptr, ptr %12, align 8, !tbaa !3
  %58 = load ptr, ptr %15, align 8, !tbaa !37
  %59 = load ptr, ptr %58, align 8, !tbaa !23
  %60 = getelementptr inbounds nuw %struct.exr_attribute_t, ptr %59, i32 0, i32 1
  %61 = load ptr, ptr %60, align 8, !tbaa !66
  %62 = call i32 @strcmp(ptr noundef %57, ptr noundef %61) #7
  %63 = icmp ne i32 0, %62
  br i1 %63, label %64, label %78

64:                                               ; preds = %56
  %65 = load ptr, ptr %15, align 8, !tbaa !37
  %66 = load ptr, ptr %65, align 8, !tbaa !23
  store ptr %66, ptr %22, align 8, !tbaa !23
  %67 = load ptr, ptr %15, align 8, !tbaa !37
  store ptr null, ptr %67, align 8, !tbaa !23
  %68 = load ptr, ptr %9, align 8, !tbaa !15
  %69 = getelementptr inbounds nuw %struct._priv_exr_context_t, ptr %68, i32 0, i32 14
  %70 = load ptr, ptr %69, align 8, !tbaa !65
  %71 = load ptr, ptr %9, align 8, !tbaa !15
  %72 = load ptr, ptr %11, align 8, !tbaa !3
  %73 = load ptr, ptr %22, align 8, !tbaa !23
  %74 = getelementptr inbounds nuw %struct.exr_attribute_t, ptr %73, i32 0, i32 1
  %75 = load ptr, ptr %74, align 8, !tbaa !66
  %76 = load ptr, ptr %12, align 8, !tbaa !3
  %77 = call i32 (ptr, i32, ptr, ...) %70(ptr noundef %71, i32 noundef 3, ptr noundef @.str.7, ptr noundef %72, ptr noundef %75, ptr noundef %76)
  store i32 %77, ptr %8, align 4
  store i32 1, ptr %23, align 4
  br label %220

78:                                               ; preds = %56
  store i32 0, ptr %8, align 4
  store i32 1, ptr %23, align 4
  br label %220

79:                                               ; preds = %53
  %80 = load i32, ptr %17, align 4, !tbaa !8
  store i32 %80, ptr %8, align 4
  store i32 1, ptr %23, align 4
  br label %220

81:                                               ; preds = %43
  %82 = load ptr, ptr %11, align 8, !tbaa !3
  %83 = call i64 @strlen(ptr noundef %82) #7
  store i64 %83, ptr %21, align 8, !tbaa !43
  %84 = load ptr, ptr %9, align 8, !tbaa !15
  %85 = getelementptr inbounds nuw %struct._priv_exr_context_t, ptr %84, i32 0, i32 2
  %86 = load i8, ptr %85, align 2, !tbaa !75
  %87 = zext i8 %86 to i32
  store i32 %87, ptr %20, align 4, !tbaa !8
  %88 = load i64, ptr %21, align 8, !tbaa !43
  %89 = load i32, ptr %20, align 4, !tbaa !8
  %90 = sext i32 %89 to i64
  %91 = icmp ugt i64 %88, %90
  br i1 %91, label %92, label %102

92:                                               ; preds = %81
  %93 = load ptr, ptr %9, align 8, !tbaa !15
  %94 = getelementptr inbounds nuw %struct._priv_exr_context_t, ptr %93, i32 0, i32 14
  %95 = load ptr, ptr %94, align 8, !tbaa !65
  %96 = load ptr, ptr %9, align 8, !tbaa !15
  %97 = load ptr, ptr %11, align 8, !tbaa !3
  %98 = load i64, ptr %21, align 8, !tbaa !43
  %99 = trunc i64 %98 to i32
  %100 = load i32, ptr %20, align 4, !tbaa !8
  %101 = call i32 (ptr, i32, ptr, ...) %95(ptr noundef %96, i32 noundef 12, ptr noundef @.str.8, ptr noundef %97, i32 noundef %99, i32 noundef %100)
  store i32 %101, ptr %8, align 4
  store i32 1, ptr %23, align 4
  br label %220

102:                                              ; preds = %81
  %103 = load i64, ptr %21, align 8, !tbaa !43
  %104 = trunc i64 %103 to i32
  store i32 %104, ptr %18, align 4, !tbaa !8
  %105 = load ptr, ptr %12, align 8, !tbaa !3
  %106 = call i64 @strlen(ptr noundef %105) #7
  store i64 %106, ptr %21, align 8, !tbaa !43
  %107 = load i64, ptr %21, align 8, !tbaa !43
  %108 = load i32, ptr %20, align 4, !tbaa !8
  %109 = sext i32 %108 to i64
  %110 = icmp ugt i64 %107, %109
  br i1 %110, label %111, label %121

111:                                              ; preds = %102
  %112 = load ptr, ptr %9, align 8, !tbaa !15
  %113 = getelementptr inbounds nuw %struct._priv_exr_context_t, ptr %112, i32 0, i32 14
  %114 = load ptr, ptr %113, align 8, !tbaa !65
  %115 = load ptr, ptr %9, align 8, !tbaa !15
  %116 = load ptr, ptr %12, align 8, !tbaa !3
  %117 = load i64, ptr %21, align 8, !tbaa !43
  %118 = trunc i64 %117 to i32
  %119 = load i32, ptr %20, align 4, !tbaa !8
  %120 = call i32 (ptr, i32, ptr, ...) %114(ptr noundef %115, i32 noundef 12, ptr noundef @.str.9, ptr noundef %116, i32 noundef %118, i32 noundef %119)
  store i32 %120, ptr %8, align 4
  store i32 1, ptr %23, align 4
  br label %220

121:                                              ; preds = %102
  %122 = load i64, ptr %21, align 8, !tbaa !43
  %123 = trunc i64 %122 to i32
  store i32 %123, ptr %19, align 4, !tbaa !8
  call void @llvm.lifetime.start.p0(i64 4, ptr %24) #6
  store i32 0, ptr %24, align 4, !tbaa !8
  br label %124

124:                                              ; preds = %143, %121
  %125 = load i32, ptr %24, align 4, !tbaa !8
  %126 = load i32, ptr @the_predefined_attr_count, align 4, !tbaa !8
  %127 = icmp slt i32 %125, %126
  br i1 %127, label %129, label %128

128:                                              ; preds = %124
  store i32 2, ptr %23, align 4
  br label %146

129:                                              ; preds = %124
  %130 = load ptr, ptr %12, align 8, !tbaa !3
  %131 = load i32, ptr %24, align 4, !tbaa !8
  %132 = sext i32 %131 to i64
  %133 = getelementptr inbounds [29 x %struct._internal_exr_attr_map], ptr @the_predefined_attr_typenames, i64 0, i64 %132
  %134 = getelementptr inbounds nuw %struct._internal_exr_attr_map, ptr %133, i32 0, i32 0
  %135 = load ptr, ptr %134, align 8, !tbaa !10
  %136 = call i32 @strcmp(ptr noundef %130, ptr noundef %135) #7
  %137 = icmp eq i32 0, %136
  br i1 %137, label %138, label %142

138:                                              ; preds = %129
  %139 = load i32, ptr %24, align 4, !tbaa !8
  %140 = sext i32 %139 to i64
  %141 = getelementptr inbounds [29 x %struct._internal_exr_attr_map], ptr @the_predefined_attr_typenames, i64 0, i64 %140
  store ptr %141, ptr %16, align 8, !tbaa !73
  store i32 2, ptr %23, align 4
  br label %146

142:                                              ; preds = %129
  br label %143

143:                                              ; preds = %142
  %144 = load i32, ptr %24, align 4, !tbaa !8
  %145 = add nsw i32 %144, 1
  store i32 %145, ptr %24, align 4, !tbaa !8
  br label %124, !llvm.loop !76

146:                                              ; preds = %138, %128
  call void @llvm.lifetime.end.p0(i64 4, ptr %24) #6
  br label %147

147:                                              ; preds = %146
  %148 = load ptr, ptr %16, align 8, !tbaa !73
  %149 = icmp ne ptr %148, null
  br i1 %149, label %150, label %180

150:                                              ; preds = %147
  %151 = load ptr, ptr %9, align 8, !tbaa !15
  %152 = load ptr, ptr %16, align 8, !tbaa !73
  %153 = getelementptr inbounds nuw %struct._internal_exr_attr_map, ptr %152, i32 0, i32 3
  %154 = load i64, ptr %153, align 8, !tbaa !77
  %155 = load i32, ptr %13, align 4, !tbaa !8
  %156 = load ptr, ptr %14, align 8, !tbaa !71
  %157 = load ptr, ptr %11, align 8, !tbaa !3
  %158 = load i32, ptr %18, align 4, !tbaa !8
  %159 = call i32 @create_attr_block(ptr noundef %151, ptr noundef %22, i64 noundef %154, i32 noundef %155, ptr noundef %156, ptr noundef %157, i32 noundef %158, ptr noundef null, i32 noundef 0)
  store i32 %159, ptr %17, align 4, !tbaa !8
  %160 = load i32, ptr %17, align 4, !tbaa !8
  %161 = icmp eq i32 %160, 0
  br i1 %161, label %162, label %179

162:                                              ; preds = %150
  %163 = load ptr, ptr %16, align 8, !tbaa !73
  %164 = getelementptr inbounds nuw %struct._internal_exr_attr_map, ptr %163, i32 0, i32 0
  %165 = load ptr, ptr %164, align 8, !tbaa !10
  %166 = load ptr, ptr %22, align 8, !tbaa !23
  %167 = getelementptr inbounds nuw %struct.exr_attribute_t, ptr %166, i32 0, i32 1
  store ptr %165, ptr %167, align 8, !tbaa !66
  %168 = load ptr, ptr %16, align 8, !tbaa !73
  %169 = getelementptr inbounds nuw %struct._internal_exr_attr_map, ptr %168, i32 0, i32 1
  %170 = load i32, ptr %169, align 8, !tbaa !78
  %171 = trunc i32 %170 to i8
  %172 = load ptr, ptr %22, align 8, !tbaa !23
  %173 = getelementptr inbounds nuw %struct.exr_attribute_t, ptr %172, i32 0, i32 3
  store i8 %171, ptr %173, align 1, !tbaa !46
  %174 = load ptr, ptr %16, align 8, !tbaa !73
  %175 = getelementptr inbounds nuw %struct._internal_exr_attr_map, ptr %174, i32 0, i32 2
  %176 = load i32, ptr %175, align 4, !tbaa !79
  %177 = load ptr, ptr %22, align 8, !tbaa !23
  %178 = getelementptr inbounds nuw %struct.exr_attribute_t, ptr %177, i32 0, i32 5
  store i32 %176, ptr %178, align 4, !tbaa !38
  br label %179

179:                                              ; preds = %162, %150
  br label %195

180:                                              ; preds = %147
  %181 = load ptr, ptr %9, align 8, !tbaa !15
  %182 = load i32, ptr %13, align 4, !tbaa !8
  %183 = load ptr, ptr %14, align 8, !tbaa !71
  %184 = load ptr, ptr %11, align 8, !tbaa !3
  %185 = load i32, ptr %18, align 4, !tbaa !8
  %186 = load ptr, ptr %12, align 8, !tbaa !3
  %187 = load i32, ptr %19, align 4, !tbaa !8
  %188 = call i32 @create_attr_block(ptr noundef %181, ptr noundef %22, i64 noundef 56, i32 noundef %182, ptr noundef %183, ptr noundef %184, i32 noundef %185, ptr noundef %186, i32 noundef %187)
  store i32 %188, ptr %17, align 4, !tbaa !8
  %189 = load i32, ptr %17, align 4, !tbaa !8
  %190 = icmp eq i32 %189, 0
  br i1 %190, label %191, label %194

191:                                              ; preds = %180
  %192 = load ptr, ptr %22, align 8, !tbaa !23
  %193 = getelementptr inbounds nuw %struct.exr_attribute_t, ptr %192, i32 0, i32 5
  store i32 30, ptr %193, align 4, !tbaa !38
  br label %194

194:                                              ; preds = %191, %180
  br label %195

195:                                              ; preds = %194, %179
  %196 = load i32, ptr %17, align 4, !tbaa !8
  %197 = icmp eq i32 %196, 0
  br i1 %197, label %198, label %204

198:                                              ; preds = %195
  %199 = load ptr, ptr %9, align 8, !tbaa !15
  %200 = load ptr, ptr %10, align 8, !tbaa !17
  %201 = load ptr, ptr %22, align 8, !tbaa !23
  %202 = load ptr, ptr %11, align 8, !tbaa !3
  %203 = call i32 @add_to_list(ptr noundef %199, ptr noundef %200, ptr noundef %201, ptr noundef %202)
  store i32 %203, ptr %17, align 4, !tbaa !8
  br label %204

204:                                              ; preds = %198, %195
  %205 = load i32, ptr %17, align 4, !tbaa !8
  %206 = icmp eq i32 %205, 0
  br i1 %206, label %207, label %212

207:                                              ; preds = %204
  %208 = load ptr, ptr %22, align 8, !tbaa !23
  %209 = load ptr, ptr %15, align 8, !tbaa !37
  store ptr %208, ptr %209, align 8, !tbaa !23
  %210 = load ptr, ptr %9, align 8, !tbaa !15
  %211 = load ptr, ptr %22, align 8, !tbaa !23
  call void @check_attr_handler(ptr noundef %210, ptr noundef %211)
  br label %218

212:                                              ; preds = %204
  %213 = load ptr, ptr %14, align 8, !tbaa !71
  %214 = icmp ne ptr %213, null
  br i1 %214, label %215, label %217

215:                                              ; preds = %212
  %216 = load ptr, ptr %14, align 8, !tbaa !71
  store ptr null, ptr %216, align 8, !tbaa !3
  br label %217

217:                                              ; preds = %215, %212
  br label %218

218:                                              ; preds = %217, %207
  %219 = load i32, ptr %17, align 4, !tbaa !8
  store i32 %219, ptr %8, align 4
  store i32 1, ptr %23, align 4
  br label %220

220:                                              ; preds = %218, %111, %92, %79, %78, %64, %37, %27
  call void @llvm.lifetime.end.p0(i64 8, ptr %22) #6
  call void @llvm.lifetime.end.p0(i64 8, ptr %21) #6
  call void @llvm.lifetime.end.p0(i64 4, ptr %20) #6
  call void @llvm.lifetime.end.p0(i64 4, ptr %19) #6
  call void @llvm.lifetime.end.p0(i64 4, ptr %18) #6
  call void @llvm.lifetime.end.p0(i64 4, ptr %17) #6
  call void @llvm.lifetime.end.p0(i64 8, ptr %16) #6
  %221 = load i32, ptr %8, align 4
  ret i32 %221
}