; Function Attrs: nounwind uwtable
define hidden i32 @exr_attr_list_add_by_type(ptr noundef %0, ptr noundef %1, ptr noundef %2, ptr noundef %3, i32 noundef %4, ptr noundef %5, ptr noundef %6) local_unnamed_addr #3 {
  %8 = alloca ptr, align 8
  call void @llvm.lifetime.start.p0(i64 8, ptr nonnull %8) #9
  store ptr null, ptr %8, align 8, !tbaa !28
  %.not = icmp eq ptr %0, null
  br i1 %.not, label %85, label %9

9:                                                ; preds = %7
  %.not91 = icmp eq ptr %3, null
  br i1 %.not91, label %13, label %10

10:                                               ; preds = %9
  %11 = load i8, ptr %3, align 1, !tbaa !32
  %12 = icmp eq i8 %11, 0
  br i1 %12, label %13, label %17

13:                                               ; preds = %10, %9
  %14 = getelementptr inbounds nuw i8, ptr %0, i64 64
  %15 = load ptr, ptr %14, align 8, !tbaa !33
  %16 = tail call i32 %15(ptr noundef nonnull %0, i32 noundef 3, ptr noundef nonnull @.str.6) #9
  br label %85

17:                                               ; preds = %10
  %18 = tail call fastcc i32 @validate_attr_arguments(ptr noundef %0, ptr noundef %1, ptr noundef %2, i32 noundef %4, ptr noundef %5, ptr noundef %6)
  %.not92 = icmp eq i32 %18, 0
  br i1 %.not92, label %31, label %19

19:                                               ; preds = %17
  %20 = icmp slt i32 %18, 0
  br i1 %20, label %21, label %85

21:                                               ; preds = %19
  %22 = load ptr, ptr %6, align 8, !tbaa !28
  %23 = getelementptr inbounds nuw i8, ptr %22, i64 8
  %24 = load ptr, ptr %23, align 8, !tbaa !56
  %25 = tail call i32 @strcmp(ptr noundef nonnull dereferenceable(1) %3, ptr noundef nonnull dereferenceable(1) %24) #8
  %.not95 = icmp eq i32 %25, 0
  br i1 %.not95, label %85, label %26

26:                                               ; preds = %21
  store ptr null, ptr %6, align 8, !tbaa !28
  %27 = getelementptr inbounds nuw i8, ptr %0, i64 72
  %28 = load ptr, ptr %27, align 8, !tbaa !55
  %29 = load ptr, ptr %23, align 8, !tbaa !56
  %30 = tail call i32 (ptr, i32, ptr, ...) %28(ptr noundef nonnull %0, i32 noundef 3, ptr noundef nonnull @.str.7, ptr noundef %2, ptr noundef %29, ptr noundef nonnull %3) #9
  br label %85

31:                                               ; preds = %17
  %32 = tail call i64 @strlen(ptr noundef nonnull dereferenceable(1) %2) #8
  %33 = getelementptr inbounds nuw i8, ptr %0, i64 2
  %34 = load i8, ptr %33, align 2, !tbaa !62
  %35 = zext i8 %34 to i32
  %36 = zext i8 %34 to i64
  %37 = icmp ugt i64 %32, %36
  br i1 %37, label %38, label %43

38:                                               ; preds = %31
  %39 = getelementptr inbounds nuw i8, ptr %0, i64 72
  %40 = load ptr, ptr %39, align 8, !tbaa !55
  %41 = trunc i64 %32 to i32
  %42 = tail call i32 (ptr, i32, ptr, ...) %40(ptr noundef nonnull %0, i32 noundef 12, ptr noundef nonnull @.str.8, ptr noundef nonnull %2, i32 noundef %41, i32 noundef %35) #9
  br label %85

43:                                               ; preds = %31
  %44 = trunc nuw nsw i64 %32 to i32
  %45 = tail call i64 @strlen(ptr noundef nonnull dereferenceable(1) %3) #8
  %46 = icmp ugt i64 %45, %36
  br i1 %46, label %47, label %52

47:                                               ; preds = %43
  %48 = getelementptr inbounds nuw i8, ptr %0, i64 72
  %49 = load ptr, ptr %48, align 8, !tbaa !55
  %50 = trunc i64 %45 to i32
  %51 = tail call i32 (ptr, i32, ptr, ...) %49(ptr noundef nonnull %0, i32 noundef 12, ptr noundef nonnull @.str.9, ptr noundef nonnull %3, i32 noundef %50, i32 noundef %35) #9
  br label %85

52:                                               ; preds = %43
  %53 = trunc nuw nsw i64 %45 to i32
  br label %55

54:                                               ; preds = %55
  %indvars.iv.next = add nuw nsw i64 %indvars.iv, 1
  %exitcond.not = icmp eq i64 %indvars.iv.next, 29
  br i1 %exitcond.not, label %74, label %55, !llvm.loop !63

55:                                               ; preds = %52, %54
  %indvars.iv = phi i64 [ 0, %52 ], [ %indvars.iv.next, %54 ]
  %56 = getelementptr inbounds nuw [29 x %struct._internal_exr_attr_map], ptr @the_predefined_attr_typenames, i64 0, i64 %indvars.iv
  %57 = load ptr, ptr %56, align 8, !tbaa !3
  %58 = tail call i32 @strcmp(ptr noundef nonnull dereferenceable(1) %3, ptr noundef nonnull dereferenceable(1) %57) #8
  %59 = icmp eq i32 %58, 0
  br i1 %59, label %60, label %54

60:                                               ; preds = %55
  %61 = getelementptr inbounds nuw i8, ptr %56, i64 16
  %62 = load i64, ptr %61, align 8, !tbaa !64
  %63 = call fastcc i32 @create_attr_block(ptr noundef %0, ptr noundef %8, i64 noundef %62, i32 noundef %4, ptr noundef %5, ptr noundef nonnull %2, i32 noundef %44, ptr noundef null, i32 noundef 0)
  %64 = icmp eq i32 %63, 0
  br i1 %64, label %65, label %.thread101

65:                                               ; preds = %60
  %66 = load ptr, ptr %8, align 8, !tbaa !28
  %67 = getelementptr inbounds nuw i8, ptr %66, i64 8
  store ptr %57, ptr %67, align 8, !tbaa !56
  %68 = getelementptr inbounds nuw i8, ptr %56, i64 8
  %69 = load i32, ptr %68, align 8, !tbaa !65
  %70 = trunc i32 %69 to i8
  %71 = getelementptr inbounds nuw i8, ptr %66, i64 17
  store i8 %70, ptr %71, align 1, !tbaa !36
  %72 = getelementptr inbounds nuw i8, ptr %56, i64 12
  %73 = load i32, ptr %72, align 4, !tbaa !66
  br label %79

74:                                               ; preds = %54
  %75 = call fastcc i32 @create_attr_block(ptr noundef %0, ptr noundef %8, i64 noundef 56, i32 noundef %4, ptr noundef %5, ptr noundef nonnull %2, i32 noundef %44, ptr noundef nonnull %3, i32 noundef %53)
  %76 = icmp eq i32 %75, 0
  br i1 %76, label %77, label %.thread101

77:                                               ; preds = %74
  %78 = load ptr, ptr %8, align 8, !tbaa !28
  br label %79

79:                                               ; preds = %77, %65
  %.sink111 = phi ptr [ %78, %77 ], [ %66, %65 ]
  %.sink = phi i32 [ 30, %77 ], [ %73, %65 ]
  %80 = getelementptr inbounds nuw i8, ptr %.sink111, i64 20
  store i32 %.sink, ptr %80, align 4, !tbaa !30
  %81 = tail call fastcc i32 @add_to_list(ptr noundef %0, ptr noundef %1, ptr noundef nonnull %.sink111)
  %82 = icmp eq i32 %81, 0
  br i1 %82, label %83, label %.thread101

83:                                               ; preds = %79
  store ptr %.sink111, ptr %6, align 8, !tbaa !28
  tail call fastcc void @check_attr_handler(ptr noundef %0, ptr noundef nonnull %.sink111)
  br label %85

.thread101:                                       ; preds = %74, %60, %79
  %.1103 = phi i32 [ %81, %79 ], [ %75, %74 ], [ %63, %60 ]
  %.not94 = icmp eq ptr %5, null
  br i1 %.not94, label %85, label %84

84:                                               ; preds = %.thread101
  store ptr null, ptr %5, align 8, !tbaa !67
  br label %85

85:                                               ; preds = %83, %84, %.thread101, %19, %21, %7, %47, %38, %26, %13
  %.075 = phi i32 [ %16, %13 ], [ %30, %26 ], [ %42, %38 ], [ %51, %47 ], [ 2, %7 ], [ 0, %21 ], [ %18, %19 ], [ %.1103, %.thread101 ], [ %.1103, %84 ], [ 0, %83 ]
  call void @llvm.lifetime.end.p0(i64 8, ptr nonnull %8) #9
  ret i32 %.075
}